target datalayout = "e-m:e-p270:32:32-p271:32:32-p272:64:64-i64:64-i128:128-f80:128-n8:16:32:64-S128"
target triple = "x86_64-pc-linux-gnu"

%struct.pg_tm = type { i32, i32, i32, i32, i32, i32, i32, i32, i32, i64, ptr }
%struct.FunctionCallInfoBaseData = type { ptr, ptr, ptr, i32, i8, i16, [0 x %struct.NullableDatum] }
%struct.NullableDatum = type { i64, i8 }

@.str.3 = private unnamed_addr constant [7 x i8] c"date.c\00", align 1
@.str.19 = private unnamed_addr constant [23 x i8] c"timestamp out of range\00", align 1
@__func__.timestamp_date = private unnamed_addr constant [15 x i8] c"timestamp_date\00", align 1

; Function Attrs: inlinehint nounwind uwtable
define internal i64 @Int32GetDatum(i32 noundef %0) #4 {
  %2 = alloca i32, align 4
  store i32 %0, ptr %2, align 4
  %3 = load i32, ptr %2, align 4
  %4 = sext i32 %3 to i64
  ret i64 %4
}

; Function Attrs: inlinehint nounwind uwtable
define internal i64 @DatumGetInt64(i64 noundef %0) #4 {
  %2 = alloca i64, align 8
  store i64 %0, ptr %2, align 8
  %3 = load i64, ptr %2, align 8
  ret i64 %3
}

; Function Attrs: inlinehint nounwind uwtable
define internal i64 @DateADTGetDatum(i32 noundef %0) #4 {
  %2 = alloca i32, align 4
  store i32 %0, ptr %2, align 4
  %3 = load i32, ptr %2, align 4
  %4 = call i64 @Int32GetDatum(i32 noundef %3)
  ret i64 %4
}

; Function Attrs: inlinehint nounwind uwtable
define internal i64 @DatumGetTimestamp(i64 noundef %0) #4 {
  %2 = alloca i64, align 8
  store i64 %0, ptr %2, align 8
  %3 = load i64, ptr %2, align 8
  %4 = call i64 @DatumGetInt64(i64 noundef %3)
  ret i64 %4
}

; Function Attrs: nounwind uwtable
define dso_local i64 @timestamp_date(ptr noundef %0) #0 {
  %2 = alloca ptr, align 8
  %3 = alloca i64, align 8
  %4 = alloca i32, align 4
  %5 = alloca %struct.pg_tm, align 8
  %6 = alloca ptr, align 8
  %7 = alloca i32, align 4
  store ptr %0, ptr %2, align 8
  call void @llvm.lifetime.start.p0(i64 8, ptr %3) #9
  %8 = load ptr, ptr %2, align 8
  %9 = getelementptr inbounds nuw %struct.FunctionCallInfoBaseData, ptr %8, i32 0, i32 6
  %10 = getelementptr inbounds [0 x %struct.NullableDatum], ptr %9, i64 0, i64 0
  %11 = getelementptr inbounds nuw %struct.NullableDatum, ptr %10, i32 0, i32 0
  %12 = load i64, ptr %11, align 8
  %13 = call i64 @DatumGetTimestamp(i64 noundef %12)
  store i64 %13, ptr %3, align 8
  call void @llvm.lifetime.start.p0(i64 4, ptr %4) #9
  call void @llvm.lifetime.start.p0(i64 56, ptr %5) #9
  call void @llvm.lifetime.start.p0(i64 8, ptr %6) #9
  store ptr %5, ptr %6, align 8
  call void @llvm.lifetime.start.p0(i64 4, ptr %7) #9
  %14 = load i64, ptr %3, align 8
  %15 = icmp eq i64 %14, -9223372036854775808
  br i1 %15, label %16, label %17

16:                                               ; preds = %1
  store i32 -2147483648, ptr %4, align 4
  br label %51

17:                                               ; preds = %1
  %18 = load i64, ptr %3, align 8
  %19 = icmp eq i64 %18, 9223372036854775807
  br i1 %19, label %20, label %21

20:                                               ; preds = %17
  store i32 2147483647, ptr %4, align 4
  br label %50

21:                                               ; preds = %17
  %22 = load i64, ptr %3, align 8
  %23 = load ptr, ptr %6, align 8
  %24 = call i32 @timestamp2tm(i64 noundef %22, ptr noundef null, ptr noundef %23, ptr noundef %7, ptr noundef null, ptr noundef null)
  %25 = icmp ne i32 %24, 0
  br i1 %25, label %26, label %38

26:                                               ; preds = %21
  br label %27

27:                                               ; preds = %26
  br i1 true, label %28, label %30

28:                                               ; preds = %27
  %29 = call zeroext i1 @errstart_cold(i32 noundef 21, ptr noundef null) #8
  br i1 %29, label %32, label %35

30:                                               ; preds = %27
  %31 = call zeroext i1 @errstart(i32 noundef 21, ptr noundef null)
  br i1 %31, label %32, label %35

32:                                               ; preds = %30, %28
  %33 = call i32 @errcode(i32 noundef 134217858)
  %34 = call i32 (ptr, ...) @errmsg(ptr noundef @.str.19)
  call void @errfinish(ptr noundef @.str.3, i32 noundef 1333, ptr noundef @__func__.timestamp_date)
  br label %35

35:                                               ; preds = %32, %30, %28
  unreachable

36:                                               ; No predecessors!
  br label %37

37:                                               ; preds = %36
  br label %38

38:                                               ; preds = %37, %21
  %39 = load ptr, ptr %6, align 8
  %40 = getelementptr inbounds nuw %struct.pg_tm, ptr %39, i32 0, i32 5
  %41 = load i32, ptr %40, align 4
  %42 = load ptr, ptr %6, align 8
  %43 = getelementptr inbounds nuw %struct.pg_tm, ptr %42, i32 0, i32 4
  %44 = load i32, ptr %43, align 8
  %45 = load ptr, ptr %6, align 8
  %46 = getelementptr inbounds nuw %struct.pg_tm, ptr %45, i32 0, i32 3
  %47 = load i32, ptr %46, align 4
  %48 = call i32 @date2j(i32 noundef %41, i32 noundef %44, i32 noundef %47)
  %49 = sub i32 %48, 2451545
  store i32 %49, ptr %4, align 4
  br label %50

50:                                               ; preds = %38, %20
  br label %51

51:                                               ; preds = %50, %16
  %52 = load i32, ptr %4, align 4
  %53 = call i64 @DateADTGetDatum(i32 noundef %52)
  call void @llvm.lifetime.end.p0(i64 4, ptr %7) #9
  call void @llvm.lifetime.end.p0(i64 8, ptr %6) #9
  call void @llvm.lifetime.end.p0(i64 56, ptr %5) #9
  call void @llvm.lifetime.end.p0(i64 4, ptr %4) #9
  call void @llvm.lifetime.end.p0(i64 8, ptr %3) #9
  ret i64 %53
}