; Function Attrs: nounwind uwtable
define dso_local range(i64 -2147483648, 2147483648) i64 @timestamp_date(ptr noundef readonly captures(none) %0) local_unnamed_addr #0 {
  %2 = alloca %struct.pg_tm, align 8
  %3 = alloca i32, align 4
  %4 = getelementptr inbounds nuw i8, ptr %0, i64 32
  %5 = load i64, ptr %4, align 8
  call void @llvm.lifetime.start.p0(i64 56, ptr nonnull %2) #16
  call void @llvm.lifetime.start.p0(i64 4, ptr nonnull %3) #16
  switch i64 %5, label %7 [
    i64 -9223372036854775808, label %23
    i64 9223372036854775807, label %6
  ]

6:                                                ; preds = %1
  br label %23

7:                                                ; preds = %1
  %8 = call i32 @timestamp2tm(i64 noundef %5, ptr noundef null, ptr noundef nonnull %2, ptr noundef nonnull %3, ptr noundef null, ptr noundef null) #16
  %.not = icmp eq i32 %8, 0
  br i1 %.not, label %13, label %9

9:                                                ; preds = %7
  %10 = call zeroext i1 @errstart_cold(i32 noundef 21, ptr noundef null) #15
  call void @llvm.assume(i1 %10)
  %11 = call i32 @errcode(i32 noundef 134217858) #16
  %12 = call i32 (ptr, ...) @errmsg(ptr noundef nonnull @.str.19) #16
  call void @errfinish(ptr noundef nonnull @.str.3, i32 noundef 1333, ptr noundef nonnull @__func__.timestamp_date) #16
  unreachable

13:                                               ; preds = %7
  %14 = getelementptr inbounds nuw i8, ptr %2, i64 20
  %15 = load i32, ptr %14, align 4
  %16 = getelementptr inbounds nuw i8, ptr %2, i64 16
  %17 = load i32, ptr %16, align 8
  %18 = getelementptr inbounds nuw i8, ptr %2, i64 12
  %19 = load i32, ptr %18, align 4
  %20 = call i32 @date2j(i32 noundef %15, i32 noundef %17, i32 noundef %19) #16
  %21 = add i32 %20, -2451545
  %22 = sext i32 %21 to i64
  br label %23

23:                                               ; preds = %1, %6, %13
  %.0 = phi i64 [ 2147483647, %6 ], [ %22, %13 ], [ -2147483648, %1 ]
  call void @llvm.lifetime.end.p0(i64 4, ptr nonnull %3) #16
  call void @llvm.lifetime.end.p0(i64 56, ptr nonnull %2) #16
  ret i64 %.0
}